; ModuleID = '9/595.c'
source_filename = "9/595.c"
target datalayout = "e-m:e-p270:32:32-p271:32:32-p272:64:64-i64:64-f80:128-n8:16:32:64-S128"
target triple = "x86_64-pc-linux-gnu"

@.str = private unnamed_addr constant [3 x i8] c"%d\00", align 1
@.str.1 = private unnamed_addr constant [6 x i8] c"%s %d\00", align 1
@.str.2 = private unnamed_addr constant [4 x i8] c"%s\0A\00", align 1

; Function Attrs: noinline nounwind uwtable
define dso_local i32 @main() #0 {
  %1 = alloca i32, align 4
  %2 = alloca i32, align 4
  %3 = alloca i32, align 4
  %4 = alloca i32, align 4
  %5 = alloca i32, align 4
  %6 = alloca i32, align 4
  %7 = alloca i32, align 4
  %8 = alloca i32, align 4
  %9 = alloca i32, align 4
  %10 = alloca i32, align 4
  %11 = alloca [100 x i32], align 16
  %12 = alloca [100 x i32], align 16
  %13 = alloca [100 x [10 x i8]], align 16
  %14 = alloca [100 x [10 x i8]], align 16
  %15 = alloca [10 x i8], align 1
  store i32 0, i32* %1, align 4
  %16 = call i32 (i8*, ...) @__isoc99_scanf(i8* getelementptr inbounds ([3 x i8], [3 x i8]* @.str, i64 0, i64 0), i32* %2)
  store i32 0, i32* %3, align 4
  br label %17

17:                                               ; preds = %30, %0
  %18 = load i32, i32* %3, align 4
  %19 = load i32, i32* %2, align 4
  %20 = icmp slt i32 %18, %19
  br i1 %20, label %21, label %33

21:                                               ; preds = %17
  %22 = load i32, i32* %3, align 4
  %23 = sext i32 %22 to i64
  %24 = getelementptr inbounds [100 x [10 x i8]], [100 x [10 x i8]]* %13, i64 0, i64 %23
  %25 = getelementptr inbounds [10 x i8], [10 x i8]* %24, i64 0, i64 0
  %26 = load i32, i32* %3, align 4
  %27 = sext i32 %26 to i64
  %28 = getelementptr inbounds [100 x i32], [100 x i32]* %11, i64 0, i64 %27
  %29 = call i32 (i8*, ...) @__isoc99_scanf(i8* getelementptr inbounds ([6 x i8], [6 x i8]* @.str.1, i64 0, i64 0), i8* %25, i32* %28)
  br label %30

30:                                               ; preds = %21
  %31 = load i32, i32* %3, align 4
  %32 = add nsw i32 %31, 1
  store i32 %32, i32* %3, align 4
  br label %17

33:                                               ; preds = %17
  store i32 0, i32* %9, align 4
  store i32 0, i32* %6, align 4
  br label %34

34:                                               ; preds = %64, %33
  %35 = load i32, i32* %9, align 4
  %36 = load i32, i32* %2, align 4
  %37 = icmp slt i32 %35, %36
  br i1 %37, label %38, label %67

38:                                               ; preds = %34
  %39 = load i32, i32* %9, align 4
  %40 = sext i32 %39 to i64
  %41 = getelementptr inbounds [100 x i32], [100 x i32]* %11, i64 0, i64 %40
  %42 = load i32, i32* %41, align 4
  %43 = icmp sge i32 %42, 60
  br i1 %43, label %44, label %63

44:                                               ; preds = %38
  %45 = load i32, i32* %9, align 4
  %46 = sext i32 %45 to i64
  %47 = getelementptr inbounds [100 x i32], [100 x i32]* %11, i64 0, i64 %46
  %48 = load i32, i32* %47, align 4
  %49 = load i32, i32* %6, align 4
  %50 = sext i32 %49 to i64
  %51 = getelementptr inbounds [100 x i32], [100 x i32]* %12, i64 0, i64 %50
  store i32 %48, i32* %51, align 4
  %52 = load i32, i32* %6, align 4
  %53 = sext i32 %52 to i64
  %54 = getelementptr inbounds [100 x [10 x i8]], [100 x [10 x i8]]* %14, i64 0, i64 %53
  %55 = getelementptr inbounds [10 x i8], [10 x i8]* %54, i64 0, i64 0
  %56 = load i32, i32* %9, align 4
  %57 = sext i32 %56 to i64
  %58 = getelementptr inbounds [100 x [10 x i8]], [100 x [10 x i8]]* %13, i64 0, i64 %57
  %59 = getelementptr inbounds [10 x i8], [10 x i8]* %58, i64 0, i64 0
  %60 = call i8* @strcpy(i8* %55, i8* %59) #3
  %61 = load i32, i32* %6, align 4
  %62 = add nsw i32 %61, 1
  store i32 %62, i32* %6, align 4
  br label %63

63:                                               ; preds = %44, %38
  br label %64

64:                                               ; preds = %63
  %65 = load i32, i32* %9, align 4
  %66 = add nsw i32 %65, 1
  store i32 %66, i32* %9, align 4
  br label %34

67:                                               ; preds = %34
  store i32 0, i32* %5, align 4
  br label %68

68:                                               ; preds = %138, %67
  %69 = load i32, i32* %5, align 4
  %70 = load i32, i32* %6, align 4
  %71 = sub nsw i32 %70, 1
  %72 = icmp slt i32 %69, %71
  br i1 %72, label %73, label %141

73:                                               ; preds = %68
  store i32 0, i32* %7, align 4
  br label %74

74:                                               ; preds = %134, %73
  %75 = load i32, i32* %7, align 4
  %76 = load i32, i32* %6, align 4
  %77 = load i32, i32* %5, align 4
  %78 = sub nsw i32 %76, %77
  %79 = sub nsw i32 %78, 1
  %80 = icmp slt i32 %75, %79
  br i1 %80, label %81, label %137

81:                                               ; preds = %74
  %82 = load i32, i32* %7, align 4
  %83 = add nsw i32 %82, 1
  %84 = sext i32 %83 to i64
  %85 = getelementptr inbounds [100 x i32], [100 x i32]* %12, i64 0, i64 %84
  %86 = load i32, i32* %85, align 4
  %87 = load i32, i32* %7, align 4
  %88 = sext i32 %87 to i64
  %89 = getelementptr inbounds [100 x i32], [100 x i32]* %12, i64 0, i64 %88
  %90 = load i32, i32* %89, align 4
  %91 = icmp sgt i32 %86, %90
  br i1 %91, label %92, label %133

92:                                               ; preds = %81
  %93 = load i32, i32* %7, align 4
  %94 = add nsw i32 %93, 1
  %95 = sext i32 %94 to i64
  %96 = getelementptr inbounds [100 x i32], [100 x i32]* %12, i64 0, i64 %95
  %97 = load i32, i32* %96, align 4
  store i32 %97, i32* %8, align 4
  %98 = load i32, i32* %7, align 4
  %99 = sext i32 %98 to i64
  %100 = getelementptr inbounds [100 x i32], [100 x i32]* %12, i64 0, i64 %99
  %101 = load i32, i32* %100, align 4
  %102 = load i32, i32* %7, align 4
  %103 = add nsw i32 %102, 1
  %104 = sext i32 %103 to i64
  %105 = getelementptr inbounds [100 x i32], [100 x i32]* %12, i64 0, i64 %104
  store i32 %101, i32* %105, align 4
  %106 = load i32, i32* %8, align 4
  %107 = load i32, i32* %7, align 4
  %108 = sext i32 %107 to i64
  %109 = getelementptr inbounds [100 x i32], [100 x i32]* %12, i64 0, i64 %108
  store i32 %106, i32* %109, align 4
  %110 = getelementptr inbounds [10 x i8], [10 x i8]* %15, i64 0, i64 0
  %111 = load i32, i32* %7, align 4
  %112 = add nsw i32 %111, 1
  %113 = sext i32 %112 to i64
  %114 = getelementptr inbounds [100 x [10 x i8]], [100 x [10 x i8]]* %14, i64 0, i64 %113
  %115 = getelementptr inbounds [10 x i8], [10 x i8]* %114, i64 0, i64 0
  %116 = call i8* @strcpy(i8* %110, i8* %115) #3
  %117 = load i32, i32* %7, align 4
  %118 = add nsw i32 %117, 1
  %119 = sext i32 %118 to i64
  %120 = getelementptr inbounds [100 x [10 x i8]], [100 x [10 x i8]]* %14, i64 0, i64 %119
  %121 = getelementptr inbounds [10 x i8], [10 x i8]* %120, i64 0, i64 0
  %122 = load i32, i32* %7, align 4
  %123 = sext i32 %122 to i64
  %124 = getelementptr inbounds [100 x [10 x i8]], [100 x [10 x i8]]* %14, i64 0, i64 %123
  %125 = getelementptr inbounds [10 x i8], [10 x i8]* %124, i64 0, i64 0
  %126 = call i8* @strcpy(i8* %121, i8* %125) #3
  %127 = load i32, i32* %7, align 4
  %128 = sext i32 %127 to i64
  %129 = getelementptr inbounds [100 x [10 x i8]], [100 x [10 x i8]]* %14, i64 0, i64 %128
  %130 = getelementptr inbounds [10 x i8], [10 x i8]* %129, i64 0, i64 0
  %131 = getelementptr inbounds [10 x i8], [10 x i8]* %15, i64 0, i64 0
  %132 = call i8* @strcpy(i8* %130, i8* %131) #3
  br label %133

133:                                              ; preds = %92, %81
  br label %134

134:                                              ; preds = %133
  %135 = load i32, i32* %7, align 4
  %136 = add nsw i32 %135, 1
  store i32 %136, i32* %7, align 4
  br label %74

137:                                              ; preds = %74
  br label %138

138:                                              ; preds = %137
  %139 = load i32, i32* %5, align 4
  %140 = add nsw i32 %139, 1
  store i32 %140, i32* %5, align 4
  br label %68

141:                                              ; preds = %68
  store i32 0, i32* %4, align 4
  br label %142

142:                                              ; preds = %152, %141
  %143 = load i32, i32* %4, align 4
  %144 = load i32, i32* %6, align 4
  %145 = icmp slt i32 %143, %144
  br i1 %145, label %146, label %155

146:                                              ; preds = %142
  %147 = load i32, i32* %4, align 4
  %148 = sext i32 %147 to i64
  %149 = getelementptr inbounds [100 x [10 x i8]], [100 x [10 x i8]]* %14, i64 0, i64 %148
  %150 = getelementptr inbounds [10 x i8], [10 x i8]* %149, i64 0, i64 0
  %151 = call i32 (i8*, ...) @printf(i8* getelementptr inbounds ([4 x i8], [4 x i8]* @.str.2, i64 0, i64 0), i8* %150)
  br label %152

152:                                              ; preds = %146
  %153 = load i32, i32* %4, align 4
  %154 = add nsw i32 %153, 1
  store i32 %154, i32* %4, align 4
  br label %142

155:                                              ; preds = %142
  store i32 0, i32* %10, align 4
  br label %156

156:                                              ; preds = %173, %155
  %157 = load i32, i32* %10, align 4
  %158 = load i32, i32* %2, align 4
  %159 = icmp slt i32 %157, %158
  br i1 %159, label %160, label %176

160:                                              ; preds = %156
  %161 = load i32, i32* %10, align 4
  %162 = sext i32 %161 to i64
  %163 = getelementptr inbounds [100 x i32], [100 x i32]* %11, i64 0, i64 %162
  %164 = load i32, i32* %163, align 4
  %165 = icmp slt i32 %164, 60
  br i1 %165, label %166, label %172

166:                                              ; preds = %160
  %167 = load i32, i32* %10, align 4
  %168 = sext i32 %167 to i64
  %169 = getelementptr inbounds [100 x [10 x i8]], [100 x [10 x i8]]* %13, i64 0, i64 %168
  %170 = getelementptr inbounds [10 x i8], [10 x i8]* %169, i64 0, i64 0
  %171 = call i32 (i8*, ...) @printf(i8* getelementptr inbounds ([4 x i8], [4 x i8]* @.str.2, i64 0, i64 0), i8* %170)
  br label %172

172:                                              ; preds = %166, %160
  br label %173

173:                                              ; preds = %172
  %174 = load i32, i32* %10, align 4
  %175 = add nsw i32 %174, 1
  store i32 %175, i32* %10, align 4
  br label %156

176:                                              ; preds = %156
  %177 = call i32 @getchar()
  %178 = call i32 @getchar()
  %179 = call i32 @getchar()
  %180 = call i32 @getchar()
  %181 = call i32 @getchar()
  %182 = call i32 @getchar()
  %183 = load i32, i32* %1, align 4
  ret i32 %183
}

declare dso_local i32 @__isoc99_scanf(i8*, ...) #1

; Function Attrs: nounwind
declare dso_local i8* @strcpy(i8*, i8*) #2

declare dso_local i32 @printf(i8*, ...) #1

declare dso_local i32 @getchar() #1


!llvm.module.flags = !{!0}
!llvm.ident = !{!1}

!0 = !{i32 1, !"wchar_size", i32 4}
!1 = !{!"clang version 10.0.0-4ubuntu1 "}
